Certificate:
    Data:
        Version: 3 (0x2)
        Serial Number: 2 (0x2)
    Signature Algorithm: sha1WithRSAEncryption
        Issuer: DC=org, DC=simple, O=Simple Inc, OU=Simple Signing CA, CN=Simple Signing CA
        Validity
            Not Before: Dec  9 07:17:13 2018 GMT
            Not After : Dec  8 07:17:13 2020 GMT
        Subject: DC=org, DC=simple, O=Simple Inc, CN=www.simple.org
        Subject Public Key Info:
            Public Key Algorithm: rsaEncryption
                Public-Key: (2048 bit)
                Modulus:
                    00:cc:74:fc:ce:65:84:46:e0:9a:ef:82:e4:f9:60:
                    b8:2b:80:13:e0:e6:12:c5:01:93:86:3f:06:e4:ff:
                    20:aa:03:f3:e4:2e:8b:61:e2:e4:99:6a:83:6d:d5:
                    1a:ee:28:1e:83:e7:f1:14:93:5c:c5:ca:5f:fa:e0:
                    29:06:6c:7a:59:c9:51:31:69:1a:4e:f3:8a:0e:f6:
                    eb:15:b7:86:b6:96:4e:bb:53:3b:55:e4:52:b9:90:
                    bd:19:e6:40:0d:1e:31:c4:f6:1b:ec:c9:54:9c:d4:
                    8c:a3:ab:c6:52:c7:c3:81:7e:45:36:b6:4c:2b:ce:
                    14:62:c2:7c:45:36:b8:62:fe:14:42:41:6e:38:36:
                    d0:1b:0a:9d:a0:88:77:cd:84:1c:a4:59:15:78:0e:
                    ff:d0:af:ac:e4:e8:f1:af:62:a7:b0:e8:2b:0b:8d:
                    2e:ed:a1:49:79:5e:3c:81:2a:39:bb:3b:92:e5:4f:
                    89:bb:c4:65:de:83:cf:b8:8c:1b:68:a7:0e:df:fe:
                    de:44:d4:1d:cc:b7:7a:07:78:73:b9:c2:9d:15:3d:
                    8c:f3:98:bf:87:f6:f7:39:e3:78:16:c8:6b:8d:47:
                    51:72:51:0c:27:5f:5b:98:bf:13:27:71:92:52:de:
                    b8:31:c0:7b:ca:5c:10:3f:59:77:d0:b2:91:77:a7:
                    53:87
                Exponent: 65537 (0x10001)
        X509v3 extensions:
            X509v3 Key Usage: critical
                Digital Signature, Key Encipherment
            X509v3 Basic Constraints: 
                CA:FALSE
            X509v3 Extended Key Usage: 
                TLS Web Server Authentication, TLS Web Client Authentication
            X509v3 Subject Key Identifier: 
                D7:73:4E:E0:82:CF:FD:F4:41:7E:FF:60:89:ED:AA:E0:46:93:70:B3
            X509v3 Authority Key Identifier: 
                keyid:17:52:F9:4E:10:EA:E8:B3:99:E5:F2:00:EB:B9:CF:1A:8C:70:E2:EA

            X509v3 Subject Alternative Name: 
                DNS:www.simple.org
    Signature Algorithm: sha1WithRSAEncryption
         9d:24:cb:10:50:c8:2a:a6:8f:76:c6:78:74:3b:46:6c:c9:66:
         fc:b7:d0:0b:d6:ef:85:bb:e0:df:59:ca:7d:ef:cb:81:46:ef:
         87:31:0c:dc:aa:09:6d:3e:50:9a:95:c8:0c:59:48:39:53:e6:
         6b:55:01:0d:25:2d:6e:01:17:34:44:15:d3:75:86:17:21:ba:
         2e:5c:08:d1:f0:13:9d:4f:a6:42:3b:b6:4e:e3:c4:24:05:99:
         de:fc:2f:40:75:af:0a:8e:f2:cb:14:69:14:0d:71:8e:ef:ba:
         51:d7:4e:d6:e3:dc:45:30:e3:b8:34:1d:be:74:83:70:86:f9:
         a9:a4:88:74:74:f6:4c:f0:dd:57:92:ff:fe:56:24:f2:67:35:
         44:85:79:c7:06:2c:56:49:2e:71:3c:ba:fd:13:7b:15:d0:cd:
         e9:a8:1d:d7:51:16:7d:a2:83:32:2d:77:80:1e:17:0c:73:e1:
         a7:5c:cf:c7:4e:0f:61:d4:c9:54:c2:47:95:8c:14:1f:b0:7a:
         c6:fb:2b:31:b9:94:06:fd:c6:41:b9:4e:09:05:26:00:29:cb:
         71:98:61:d3:09:8c:69:04:67:20:01:61:7e:31:02:8c:a2:6d:
         80:55:af:9a:c0:ad:44:8b:54:5d:7c:14:09:8d:a6:83:10:40:
         16:7e:62:cf
-----BEGIN CERTIFICATE-----
MIID6TCCAtGgAwIBAgIBAjANBgkqhkiG9w0BAQUFADB6MRMwEQYKCZImiZPyLGQB
GRYDb3JnMRYwFAYKCZImiZPyLGQBGRYGc2ltcGxlMRMwEQYDVQQKDApTaW1wbGUg
SW5jMRowGAYDVQQLDBFTaW1wbGUgU2lnbmluZyBDQTEaMBgGA1UEAwwRU2ltcGxl
IFNpZ25pbmcgQ0EwHhcNMTgxMjA5MDcxNzEzWhcNMjAxMjA4MDcxNzEzWjBbMRMw
EQYKCZImiZPyLGQBGRYDb3JnMRYwFAYKCZImiZPyLGQBGRYGc2ltcGxlMRMwEQYD
VQQKDApTaW1wbGUgSW5jMRcwFQYDVQQDDA53d3cuc2ltcGxlLm9yZzCCASIwDQYJ
KoZIhvcNAQEBBQADggEPADCCAQoCggEBAMx0/M5lhEbgmu+C5PlguCuAE+DmEsUB
k4Y/BuT/IKoD8+Qui2Hi5Jlqg23VGu4oHoPn8RSTXMXKX/rgKQZselnJUTFpGk7z
ig726xW3hraWTrtTO1XkUrmQvRnmQA0eMcT2G+zJVJzUjKOrxlLHw4F+RTa2TCvO
FGLCfEU2uGL+FEJBbjg20BsKnaCId82EHKRZFXgO/9CvrOTo8a9ip7DoKwuNLu2h
SXlePIEqObs7kuVPibvEZd6Dz7iMG2inDt/+3kTUHcy3egd4c7nCnRU9jPOYv4f2
9znjeBbIa41HUXJRDCdfW5i/EydxklLeuDHAe8pcED9Zd9CykXenU4cCAwEAAaOB
mDCBlTAOBgNVHQ8BAf8EBAMCBaAwCQYDVR0TBAIwADAdBgNVHSUEFjAUBggrBgEF
BQcDAQYIKwYBBQUHAwIwHQYDVR0OBBYEFNdzTuCCz/30QX7/YIntquBGk3CzMB8G
A1UdIwQYMBaAFBdS+U4Q6uizmeXyAOu5zxqMcOLqMBkGA1UdEQQSMBCCDnd3dy5z
aW1wbGUub3JnMA0GCSqGSIb3DQEBBQUAA4IBAQCdJMsQUMgqpo92xnh0O0ZsyWb8
t9AL1u+Fu+DfWcp978uBRu+HMQzcqgltPlCalcgMWUg5U+ZrVQENJS1uARc0RBXT
dYYXIbouXAjR8BOdT6ZCO7ZO48QkBZne/C9Ada8KjvLLFGkUDXGO77pR107W49xF
MOO4NB2+dINwhvmppIh0dPZM8N1Xkv/+ViTyZzVEhXnHBixWSS5xPLr9E3sV0M3p
qB3XURZ9ooMyLXeAHhcMc+GnXM/HTg9h1MlUwkeVjBQfsHrG+ysxuZQG/cZBuU4J
BSYAKctxmGHTCYxpBGcgAWF+MQKMom2AVa+awK1Ei1RdfBQJjaaDEEAWfmLP
-----END CERTIFICATE-----
