Certificate:
    Data:
        Version: 3 (0x2)
        Serial Number: 1 (0x1)
    Signature Algorithm: sha1WithRSAEncryption
        Issuer: DC=org, DC=simple, O=Simple Inc, OU=Simple Root CA, CN=Simple Root CA
        Validity
            Not Before: Dec  9 07:05:28 2018 GMT
            Not After : Dec  8 07:05:28 2028 GMT
        Subject: DC=org, DC=simple, O=Simple Inc, OU=Simple Root CA, CN=Simple Root CA
        Subject Public Key Info:
            Public Key Algorithm: rsaEncryption
                Public-Key: (2048 bit)
                Modulus:
                    00:ba:c4:56:eb:46:48:7c:33:45:87:ba:05:e7:29:
                    5d:fa:ed:f3:38:e5:e5:fc:99:cb:cd:fa:b6:3b:c1:
                    76:46:fa:0a:e5:e8:75:b6:57:a9:79:40:ba:83:51:
                    88:dc:f7:d3:45:4b:64:2d:4d:db:57:d7:1b:a9:81:
                    88:2c:45:04:b0:42:36:ed:d3:7a:34:d8:a1:27:a1:
                    53:8d:03:ae:3d:45:01:62:46:ff:7f:c3:a7:b6:15:
                    c8:51:d4:29:68:92:74:e5:7d:83:cb:0e:75:66:43:
                    cc:70:99:b1:60:5a:3b:0a:33:6b:e8:e3:61:80:57:
                    ca:5c:14:2b:21:3e:df:9c:80:62:93:30:51:bd:bf:
                    27:e9:4b:22:6f:a1:24:62:6a:00:c9:81:55:d4:10:
                    a8:fe:a7:78:36:05:01:f2:09:22:be:27:37:98:0c:
                    cd:a2:35:1e:e9:3e:6f:55:a1:a2:3b:76:82:3f:ea:
                    b5:26:1b:95:f6:4f:45:50:c8:30:0d:e2:97:e4:0c:
                    4b:a7:c8:28:6c:3f:c6:73:d6:3e:24:bc:5f:c2:0b:
                    0b:ee:87:84:0c:a7:6f:ae:ae:95:c9:9f:de:6d:ef:
                    23:a6:07:3f:be:c3:9d:ef:1e:01:6f:ae:1c:bd:49:
                    40:b5:55:23:0f:9d:04:58:44:93:8f:37:12:e9:4e:
                    83:7d
                Exponent: 65537 (0x10001)
        X509v3 extensions:
            X509v3 Key Usage: critical
                Certificate Sign, CRL Sign
            X509v3 Basic Constraints: critical
                CA:TRUE
            X509v3 Subject Key Identifier: 
                7E:8B:5E:8B:20:9A:BC:0E:B7:5E:D4:32:F2:81:34:27:09:0C:55:91
            X509v3 Authority Key Identifier: 
                keyid:7E:8B:5E:8B:20:9A:BC:0E:B7:5E:D4:32:F2:81:34:27:09:0C:55:91

    Signature Algorithm: sha1WithRSAEncryption
         8e:1c:38:06:a5:47:2e:84:83:72:d2:99:fc:96:2d:fc:b9:58:
         be:e0:35:9f:5c:6e:55:b0:7c:f3:e8:27:aa:10:ba:36:5d:b3:
         a5:d0:63:94:8d:8a:fc:38:83:30:77:f4:a3:79:c2:5c:ed:76:
         2f:a8:ef:fe:73:72:07:c7:01:26:32:f1:fe:01:bd:85:af:38:
         41:d6:3e:f1:da:50:2a:9a:09:ec:ed:c9:67:4d:4b:2f:8c:18:
         3a:bb:46:d7:e7:e2:f6:b3:52:2e:f9:51:29:b8:cc:a8:74:7e:
         90:84:33:33:0b:4c:36:6f:66:1e:ac:a3:30:75:6d:81:aa:31:
         40:8c:fe:63:47:62:29:87:5c:0b:66:5c:53:b6:4d:18:c8:3c:
         00:1c:2d:fb:fb:fa:0d:bd:81:72:2d:8b:fb:c0:35:cc:0b:9e:
         6d:94:66:9a:74:00:cd:83:ef:b8:a6:47:67:d4:c8:63:41:4b:
         b5:d4:48:2b:93:34:21:e0:15:61:b7:a5:a4:85:2a:5f:91:14:
         e1:05:fb:de:8f:4d:66:55:e6:dd:7c:55:b2:f8:61:93:62:56:
         cd:19:80:da:1e:e3:6e:6e:5e:cf:4b:09:95:72:9a:35:a9:f6:
         ab:2d:dd:71:a8:07:5a:fe:20:49:f3:ad:ae:bd:8f:70:cb:73:
         b6:e6:0c:e5
-----BEGIN CERTIFICATE-----
MIIDxjCCAq6gAwIBAgIBATANBgkqhkiG9w0BAQUFADB0MRMwEQYKCZImiZPyLGQB
GRYDb3JnMRYwFAYKCZImiZPyLGQBGRYGc2ltcGxlMRMwEQYDVQQKDApTaW1wbGUg
SW5jMRcwFQYDVQQLDA5TaW1wbGUgUm9vdCBDQTEXMBUGA1UEAwwOU2ltcGxlIFJv
b3QgQ0EwHhcNMTgxMjA5MDcwNTI4WhcNMjgxMjA4MDcwNTI4WjB0MRMwEQYKCZIm
iZPyLGQBGRYDb3JnMRYwFAYKCZImiZPyLGQBGRYGc2ltcGxlMRMwEQYDVQQKDApT
aW1wbGUgSW5jMRcwFQYDVQQLDA5TaW1wbGUgUm9vdCBDQTEXMBUGA1UEAwwOU2lt
cGxlIFJvb3QgQ0EwggEiMA0GCSqGSIb3DQEBAQUAA4IBDwAwggEKAoIBAQC6xFbr
Rkh8M0WHugXnKV367fM45eX8mcvN+rY7wXZG+grl6HW2V6l5QLqDUYjc99NFS2Qt
TdtX1xupgYgsRQSwQjbt03o02KEnoVONA649RQFiRv9/w6e2FchR1CloknTlfYPL
DnVmQ8xwmbFgWjsKM2vo42GAV8pcFCshPt+cgGKTMFG9vyfpSyJvoSRiagDJgVXU
EKj+p3g2BQHyCSK+JzeYDM2iNR7pPm9VoaI7doI/6rUmG5X2T0VQyDAN4pfkDEun
yChsP8Zz1j4kvF/CCwvuh4QMp2+urpXJn95t7yOmBz++w53vHgFvrhy9SUC1VSMP
nQRYRJOPNxLpToN9AgMBAAGjYzBhMA4GA1UdDwEB/wQEAwIBBjAPBgNVHRMBAf8E
BTADAQH/MB0GA1UdDgQWBBR+i16LIJq8Drde1DLygTQnCQxVkTAfBgNVHSMEGDAW
gBR+i16LIJq8Drde1DLygTQnCQxVkTANBgkqhkiG9w0BAQUFAAOCAQEAjhw4BqVH
LoSDctKZ/JYt/LlYvuA1n1xuVbB88+gnqhC6Nl2zpdBjlI2K/DiDMHf0o3nCXO12
L6jv/nNyB8cBJjLx/gG9ha84QdY+8dpQKpoJ7O3JZ01LL4wYOrtG1+fi9rNSLvlR
KbjMqHR+kIQzMwtMNm9mHqyjMHVtgaoxQIz+Y0diKYdcC2ZcU7ZNGMg8ABwt+/v6
Db2Bci2L+8A1zAuebZRmmnQAzYPvuKZHZ9TIY0FLtdRIK5M0IeAVYbelpIUqX5EU
4QX73o9NZlXm3XxVsvhhk2JWzRmA2h7jbm5ez0sJlXKaNan2qy3dcagHWv4gSfOt
rr2PcMtztuYM5Q==
-----END CERTIFICATE-----
