Certificate:
    Data:
        Version: 3 (0x2)
        Serial Number: 2 (0x2)
    Signature Algorithm: sha1WithRSAEncryption
        Issuer: DC=org, DC=simple, O=Simple Inc, OU=Simple Root CA, CN=Simple Root CA
        Validity
            Not Before: Dec  9 07:09:17 2018 GMT
            Not After : Dec  8 07:09:17 2028 GMT
        Subject: DC=org, DC=simple, O=Simple Inc, OU=Simple Signing CA, CN=Simple Signing CA
        Subject Public Key Info:
            Public Key Algorithm: rsaEncryption
                Public-Key: (2048 bit)
                Modulus:
                    00:dc:48:15:53:4b:1f:7c:4c:ed:95:34:6b:c9:5a:
                    d4:7d:21:bb:84:2e:0c:a3:a1:c6:b7:0c:cb:5f:59:
                    a4:16:af:2c:02:59:b2:5d:48:e6:d0:11:5e:a5:b8:
                    5d:c5:8d:e3:f5:45:d1:2d:a6:79:3c:02:c2:f3:37:
                    42:a3:82:54:9d:2f:5e:c2:28:cb:07:03:be:50:fe:
                    61:09:33:ea:53:1e:d2:35:b4:2a:f6:28:a1:38:74:
                    ca:13:2f:f4:3a:e8:62:b6:60:52:c9:4f:4e:45:78:
                    d3:6e:1e:bb:1d:23:83:88:5a:cc:c6:3f:5c:c5:0a:
                    cf:c7:c0:7c:28:6f:2d:09:d8:47:07:96:b5:92:41:
                    76:c5:57:32:8b:6f:cf:8f:51:0f:c3:f9:ee:d5:fc:
                    98:ac:09:c2:1f:00:b4:48:17:35:88:3e:7f:cf:3b:
                    55:0b:68:f3:e3:49:44:06:eb:c1:e6:b0:fc:a1:00:
                    77:ed:92:52:b2:1f:75:85:58:dd:45:b9:91:51:18:
                    6a:b0:51:a4:87:01:2c:43:b1:12:67:ea:a7:2f:fa:
                    f3:bb:9a:14:8d:d4:06:39:cd:df:01:3d:59:f0:a7:
                    1d:19:82:d7:ce:e8:3e:5d:7f:ea:8f:0e:f6:73:41:
                    c4:32:27:df:26:1f:c3:c5:b1:6c:23:a2:28:12:df:
                    8d:31
                Exponent: 65537 (0x10001)
        X509v3 extensions:
            X509v3 Key Usage: critical
                Certificate Sign, CRL Sign
            X509v3 Basic Constraints: critical
                CA:TRUE, pathlen:0
            X509v3 Subject Key Identifier: 
                21:53:12:6F:7A:8B:20:68:48:7A:FA:32:59:97:E4:39:1A:EA:04:A5
            X509v3 Authority Key Identifier: 
                keyid:7E:8B:5E:8B:20:9A:BC:0E:B7:5E:D4:32:F2:81:34:27:09:0C:55:91

    Signature Algorithm: sha1WithRSAEncryption
         15:c6:cb:08:68:c9:5f:a6:2f:f7:cb:aa:44:e3:2c:88:8f:ac:
         d1:32:f6:5c:88:15:47:5e:55:48:45:2f:ca:0f:c2:3b:54:14:
         40:2e:a0:28:86:f7:b7:d5:a7:b5:e9:c4:66:2e:99:14:f1:c4:
         0f:9a:e6:aa:76:5a:51:ec:9e:f6:34:24:f0:13:4d:60:91:db:
         01:4f:f5:91:6a:14:85:a5:ae:4f:df:58:07:e7:3f:61:b9:5f:
         0d:1e:ec:27:b2:3c:e8:43:b7:d0:51:d9:72:44:a6:2b:fb:89:
         a1:bb:a0:be:38:40:3f:fc:95:90:1e:6c:5b:5e:b4:c6:38:be:
         a7:78:84:ec:6b:78:bf:c2:3c:a9:1f:63:78:6e:c3:38:ba:08:
         7a:cb:3f:c9:20:74:2b:77:9a:e1:a6:dc:d6:e6:c7:26:85:26:
         c6:10:01:06:81:ab:0c:55:7d:9d:d3:b7:ef:a4:b8:54:34:76:
         ec:37:c4:48:5b:a7:84:19:d9:3d:6a:ef:1a:8f:00:3a:35:f1:
         ed:8c:35:6e:ce:d0:5f:4f:e9:76:7e:bd:32:9c:e8:e4:63:b7:
         c1:0e:6c:3a:e3:80:af:cc:ee:38:3a:c1:7e:83:f1:ed:ce:96:
         86:b0:15:25:1d:6b:91:16:32:1a:a9:ea:1d:a0:fc:e4:f9:a3:
         44:a5:29:4d
-----BEGIN CERTIFICATE-----
MIIDzzCCAregAwIBAgIBAjANBgkqhkiG9w0BAQUFADB0MRMwEQYKCZImiZPyLGQB
GRYDb3JnMRYwFAYKCZImiZPyLGQBGRYGc2ltcGxlMRMwEQYDVQQKDApTaW1wbGUg
SW5jMRcwFQYDVQQLDA5TaW1wbGUgUm9vdCBDQTEXMBUGA1UEAwwOU2ltcGxlIFJv
b3QgQ0EwHhcNMTgxMjA5MDcwOTE3WhcNMjgxMjA4MDcwOTE3WjB6MRMwEQYKCZIm
iZPyLGQBGRYDb3JnMRYwFAYKCZImiZPyLGQBGRYGc2ltcGxlMRMwEQYDVQQKDApT
aW1wbGUgSW5jMRowGAYDVQQLDBFTaW1wbGUgU2lnbmluZyBDQTEaMBgGA1UEAwwR
U2ltcGxlIFNpZ25pbmcgQ0EwggEiMA0GCSqGSIb3DQEBAQUAA4IBDwAwggEKAoIB
AQDcSBVTSx98TO2VNGvJWtR9IbuELgyjoca3DMtfWaQWrywCWbJdSObQEV6luF3F
jeP1RdEtpnk8AsLzN0KjglSdL17CKMsHA75Q/mEJM+pTHtI1tCr2KKE4dMoTL/Q6
6GK2YFLJT05FeNNuHrsdI4OIWszGP1zFCs/HwHwoby0J2EcHlrWSQXbFVzKLb8+P
UQ/D+e7V/JisCcIfALRIFzWIPn/PO1ULaPPjSUQG68HmsPyhAHftklKyH3WFWN1F
uZFRGGqwUaSHASxDsRJn6qcv+vO7mhSN1AY5zd8BPVnwpx0ZgtfO6D5df+qPDvZz
QcQyJ98mH8PFsWwjoigS340xAgMBAAGjZjBkMA4GA1UdDwEB/wQEAwIBBjASBgNV
HRMBAf8ECDAGAQH/AgEAMB0GA1UdDgQWBBQhUxJveosgaEh6+jJZl+Q5GuoEpTAf
BgNVHSMEGDAWgBR+i16LIJq8Drde1DLygTQnCQxVkTANBgkqhkiG9w0BAQUFAAOC
AQEAFcbLCGjJX6Yv98uqROMsiI+s0TL2XIgVR15VSEUvyg/CO1QUQC6gKIb3t9Wn
tenEZi6ZFPHED5rmqnZaUeye9jQk8BNNYJHbAU/1kWoUhaWuT99YB+c/YblfDR7s
J7I86EO30FHZckSmK/uJobugvjhAP/yVkB5sW160xji+p3iE7Gt4v8I8qR9jeG7D
OLoIess/ySB0K3ea4abc1ubHJoUmxhABBoGrDFV9ndO376S4VDR27DfESFunhBnZ
PWrvGo8AOjXx7Yw1bs7QX0/pdn69Mpzo5GO3wQ5sOuOAr8zuODrBfoPx7c6WhrAV
JR1rkRYyGqnqHaD85PmjRKUpTQ==
-----END CERTIFICATE-----
