-----BEGIN ENCRYPTED PRIVATE KEY-----
MIIFDjBABgkqhkiG9w0BBQ0wMzAbBgkqhkiG9w0BBQwwDgQI5kqkyVxHRhYCAggA
MBQGCCqGSIb3DQMHBAiV2SdgIqIOdQSCBMgzC7olxH8PP+9ii2IIcm/27BIAtwKn
pil1MT8rk9O+11SJLvKz0M01Je91Sn3fTWiFKY8z4C6e84LlZKw5QrQOR5lO4dPf
fPlVktvSDXuRzd891yQP0dM+PjdImtWZnwbcdM3jEpV5sXi0+q2p0j42DpEI4no2
HBbzxNPIC+17IFNtCj4nK2kiQzXKweEAU27uw5AQ48frzP6diB/wDUroAVeGP3ES
i+q4YnMpOVRCkHQMTL8kyGxmSyNltnJbKZr5W6DGyy2bTxINcytQ3B6c9/GhmKKN
S17suObh/kDGT5Qfj5mFwnFQCr4UCUGDpIKOQXKRFG++yo/tSRKEbDCf/V7vpwXb
hmTeKJ5iX+SbNIkAs1zZ4WRRWghrdJu03egoER24JB3ia+Gubz1ZljuOqnsAmmO4
IfE5DaDwAvqg/KqlYYeXx6QjDAdd8a1BGHv34Q/fSB1jt4DnyProhhY9Q/01qgCk
oIi9dV2iKTj0dFS/JvEWwGnc1Nrutlxk6UD4IMwDgH5IGFcKbVj8+/4zGlPn4A4O
CKgYAJTLMx6arr8pfiAYML6BXMwKErrxxKtfi8Tu1mITVTRR9HOUNc6dgWMKQIVC
HAeL4M70k+cmrRnrDu7K+yWce4d1757k/eD9XljvdVVkJ/aYLBc5mpZHCeSkX9wN
6GI8LkgkSI5Nt/0Ln9cw630m6b6HBPTp8ppubKRm8bNa6EkbkkMvirrQ2k8dVYeh
mOoaY26DUNQg/lUzaHWu9kRxIKAdJg6ktIdoqJpT14rG2zWiSMaMhSKWXyX0Vzq6
ulm7tKd8/YTIScnYGUEcCrtL/1S5u/rU5acgtwSbIpcW/T+MB4XrjuQK0CWEFgFU
uRO+kHSf+GjloceyYvkGW/1RNzJQo5TsLqV2+ZPP+a8THA6yHn3Rj+69g9wNUkHi
iKZqUb7lkLPysDdyFCb7lJq5GqDBgJ2UkrrIf8hxjDnnPUploN9zykQuoG7z9hlb
G6zVVtjIXuTAuRbOtEDlulstiLo3zgPumU21/rOFpv8Mx8Kx/HaTEkAq/wfR2jqs
ia5ODMpLrwKlGXV/h24YyjS2k9Pw1iL6vCE3Uf4F7lCO9xqqS6rBAQ8AUgXIMoe9
XEROUXPp7NmW9Z5DABKRBKwsq459mS0WuS09CAqLcmJ+q1o1DtXkBgmTgetbplUT
JMEnlclT3j5tiFQHpiGPMfU9CmAbpV8WNdnrIltwjugvM2V/xjRyVzRBbpPWGbFZ
sKn+vTs3ekn0hapyf446TtK9saO0DDtWUtgRhE78sCaQUwkfIW5gdM3onnIzTAZk
jzsEvwq8kpkg10qGnefjTeaWkg+67++z1AusBDirW1ULfQEeUu9hKqdNuXagb9F4
yILV/SCS6GZOx9sW5fBz6e/iYdKU7Hk9R4oDNm/oHAXCnYroRDlRXP9/X6ubypX7
QjvU0TQvhGDVZPj+XkZlvZlElyJbMv41xvz7UjKjdnkw/PywO8hj5jvCGOnqohdv
TgQ0EipW+biWSFIHCG/JniOyAnZzuSv1/AzJ5XeJigN+ELqmTV80fd56avIdxfTr
sYq5c73z4eN6Zxc1MzPpfHXPgTKsco7YvYlvlLbEblGjQEiACMzAQJhSc1UXzI5B
XzM=
-----END ENCRYPTED PRIVATE KEY-----
Certificate:
    Data:
        Version: 3 (0x2)
        Serial Number: 1 (0x1)
    Signature Algorithm: sha1WithRSAEncryption
        Issuer: DC=org, DC=simple, O=Simple Inc, OU=Simple Signing CA, CN=Simple Signing CA
        Validity
            Not Before: Dec  9 07:15:25 2018 GMT
            Not After : Dec  8 07:15:25 2020 GMT
        Subject: DC=org, DC=simple, O=Simple Inc, CN=titans
        Subject Public Key Info:
            Public Key Algorithm: rsaEncryption
                Public-Key: (2048 bit)
                Modulus:
                    00:ec:e2:77:0a:14:4e:3a:56:04:a9:03:5b:66:2f:
                    2f:0d:92:ba:b7:e1:28:bd:ab:a1:c5:21:53:61:3e:
                    21:4d:43:ef:09:d2:5c:a4:79:61:5c:c6:a8:1e:ff:
                    bb:3d:84:de:72:67:1a:2b:7f:9d:45:92:cd:9b:af:
                    37:9a:c1:07:98:8e:59:f5:bb:80:c5:06:c8:7b:59:
                    fe:97:c4:91:f5:6d:c0:15:00:c9:9f:01:b7:d3:d7:
                    d6:3e:e8:39:58:73:56:0e:89:71:c2:7a:8d:67:77:
                    da:5e:6c:51:50:be:b5:22:3b:59:d2:dd:bf:a1:eb:
                    3e:22:85:9b:a8:a9:08:6f:bb:b3:16:58:8e:bf:b1:
                    2a:f8:82:64:1b:29:fc:c6:6c:a0:dc:6c:ac:dc:74:
                    5a:23:29:ce:58:31:22:46:5e:f3:7f:af:ba:be:b6:
                    61:5e:41:3c:91:53:07:0f:c0:ac:9c:80:33:50:83:
                    7b:43:bb:a5:3d:75:a0:4e:e0:0f:7a:a0:be:db:57:
                    51:b2:45:d6:45:9d:8d:dd:56:19:09:90:2d:6f:29:
                    3f:2f:dd:e2:dc:26:2c:12:76:4b:88:00:6e:74:18:
                    29:58:43:26:bf:cc:a5:c8:bf:83:8a:49:ed:9b:dc:
                    8c:5c:7b:65:31:f9:6a:65:5e:16:6f:bb:3d:b1:e2:
                    57:c3
                Exponent: 65537 (0x10001)
        X509v3 extensions:
            X509v3 Key Usage: critical
                Digital Signature, Key Encipherment
            X509v3 Basic Constraints: 
                CA:FALSE
            X509v3 Extended Key Usage: 
                E-mail Protection, TLS Web Client Authentication
            X509v3 Subject Key Identifier: 
                08:19:96:CD:1C:64:CF:11:F0:67:62:CD:0B:A1:02:C0:19:6E:3B:4B
            X509v3 Authority Key Identifier: 
                keyid:17:52:F9:4E:10:EA:E8:B3:99:E5:F2:00:EB:B9:CF:1A:8C:70:E2:EA

            X509v3 Subject Alternative Name: 
                email:titans@simple.org
    Signature Algorithm: sha1WithRSAEncryption
         2d:a5:a7:fb:ba:77:aa:54:57:53:cf:f8:ad:d2:f9:28:48:76:
         23:a8:58:c9:91:55:19:3c:53:50:79:f5:b4:42:59:48:5c:a4:
         7c:5e:8b:92:7e:57:9b:ae:dc:2d:9c:92:ae:df:a9:25:93:6e:
         8d:02:14:ff:c5:41:ed:c7:e0:8c:cf:3c:a0:35:01:13:9b:73:
         6a:20:3c:5a:db:e8:a9:5d:1c:fc:67:0c:e8:ef:37:9b:04:a9:
         e9:05:b5:b7:e4:71:bf:02:e0:3e:e5:13:7d:e1:63:41:2d:e2:
         d5:ac:bb:27:ba:85:88:75:13:66:3a:f7:c6:11:0e:25:26:05:
         25:30:21:e9:bf:94:72:b7:63:47:0e:ee:0d:19:7d:90:99:fd:
         92:b7:a5:0c:74:0b:6a:a8:3a:cd:df:0e:41:93:9a:af:16:f5:
         9b:8d:5d:5a:e4:b1:30:e8:3a:0e:eb:07:ec:d0:e3:8f:79:6a:
         3d:0d:20:d9:dd:44:22:03:3c:0e:c5:c8:97:69:e1:59:2c:d8:
         03:6e:8d:53:1f:11:da:24:36:f7:92:5c:20:39:45:38:25:6c:
         1c:70:c1:45:08:c8:30:99:88:f6:17:a2:16:ea:e2:3b:eb:85:
         d6:c3:22:d1:e5:24:6f:70:cd:f8:0d:e1:de:f5:bd:a6:6a:94:
         51:9e:ed:06
-----BEGIN CERTIFICATE-----
MIID5DCCAsygAwIBAgIBATANBgkqhkiG9w0BAQUFADB6MRMwEQYKCZImiZPyLGQB
GRYDb3JnMRYwFAYKCZImiZPyLGQBGRYGc2ltcGxlMRMwEQYDVQQKDApTaW1wbGUg
SW5jMRowGAYDVQQLDBFTaW1wbGUgU2lnbmluZyBDQTEaMBgGA1UEAwwRU2ltcGxl
IFNpZ25pbmcgQ0EwHhcNMTgxMjA5MDcxNTI1WhcNMjAxMjA4MDcxNTI1WjBTMRMw
EQYKCZImiZPyLGQBGRYDb3JnMRYwFAYKCZImiZPyLGQBGRYGc2ltcGxlMRMwEQYD
VQQKDApTaW1wbGUgSW5jMQ8wDQYDVQQDDAZ0aXRhbnMwggEiMA0GCSqGSIb3DQEB
AQUAA4IBDwAwggEKAoIBAQDs4ncKFE46VgSpA1tmLy8Nkrq34Si9q6HFIVNhPiFN
Q+8J0lykeWFcxqge/7s9hN5yZxorf51Fks2brzeawQeYjln1u4DFBsh7Wf6XxJH1
bcAVAMmfAbfT19Y+6DlYc1YOiXHCeo1nd9pebFFQvrUiO1nS3b+h6z4ihZuoqQhv
u7MWWI6/sSr4gmQbKfzGbKDcbKzcdFojKc5YMSJGXvN/r7q+tmFeQTyRUwcPwKyc
gDNQg3tDu6U9daBO4A96oL7bV1GyRdZFnY3dVhkJkC1vKT8v3eLcJiwSdkuIAG50
GClYQya/zKXIv4OKSe2b3Ixce2Ux+WplXhZvuz2x4lfDAgMBAAGjgZswgZgwDgYD
VR0PAQH/BAQDAgWgMAkGA1UdEwQCMAAwHQYDVR0lBBYwFAYIKwYBBQUHAwQGCCsG
AQUFBwMCMB0GA1UdDgQWBBQIGZbNHGTPEfBnYs0LoQLAGW47SzAfBgNVHSMEGDAW
gBQXUvlOEOros5nl8gDruc8ajHDi6jAcBgNVHREEFTATgRF0aXRhbnNAc2ltcGxl
Lm9yZzANBgkqhkiG9w0BAQUFAAOCAQEALaWn+7p3qlRXU8/4rdL5KEh2I6hYyZFV
GTxTUHn1tEJZSFykfF6Lkn5Xm67cLZySrt+pJZNujQIU/8VB7cfgjM88oDUBE5tz
aiA8WtvoqV0c/GcM6O83mwSp6QW1t+RxvwLgPuUTfeFjQS3i1ay7J7qFiHUTZjr3
xhEOJSYFJTAh6b+UcrdjRw7uDRl9kJn9krelDHQLaqg6zd8OQZOarxb1m41dWuSx
MOg6DusH7NDjj3lqPQ0g2d1EIgM8DsXIl2nhWSzYA26NUx8R2iQ295JcIDlFOCVs
HHDBRQjIMJmI9heiFuriO+uF1sMi0eUkb3DN+A3h3vW9pmqUUZ7tBg==
-----END CERTIFICATE-----
