Certificate:
    Data:
        Version: 3 (0x2)
        Serial Number: 3 (0x3)
    Signature Algorithm: sha1WithRSAEncryption
        Issuer: DC=org, DC=simple, O=Simple Inc, OU=Simple Root CA, CN=Simple Root CA
        Validity
            Not Before: Dec  9 07:12:29 2018 GMT
            Not After : Dec  8 07:12:29 2028 GMT
        Subject: DC=org, DC=simple, O=Simple Inc, OU=Simple Signing CA, CN=Simple Signing CA
        Subject Public Key Info:
            Public Key Algorithm: rsaEncryption
                Public-Key: (2048 bit)
                Modulus:
                    00:9f:b2:4b:62:a3:22:fb:06:81:53:9c:c7:48:41:
                    17:d1:be:16:27:a4:58:cc:fc:4a:c5:f9:e5:90:50:
                    32:9d:6a:e2:e2:fb:2a:6b:b8:05:79:96:e7:bf:f0:
                    ae:b5:1d:c5:46:4e:75:cd:78:e4:10:b6:d0:48:01:
                    94:3c:19:20:1d:0d:ac:48:ff:07:ff:3e:9f:74:15:
                    cf:43:93:2a:77:0d:ad:fe:4b:8f:30:eb:e8:0b:a0:
                    04:47:59:09:f8:a3:af:32:68:7a:b6:33:38:3d:be:
                    e3:2f:91:f5:5c:7d:61:ab:32:74:f3:18:9e:06:79:
                    bf:6a:ea:4d:19:b3:f5:bd:bb:7c:d5:87:ad:cf:c5:
                    e5:5d:b2:3f:01:63:b9:33:6b:4d:24:3a:42:b8:13:
                    fc:7b:e2:f7:47:c8:7b:2e:72:7c:36:64:85:b8:95:
                    02:d3:f3:d5:f9:d7:26:34:be:1c:59:c7:82:5e:1f:
                    ab:21:e2:48:dd:05:bc:e6:c1:05:86:99:72:6f:69:
                    ad:d1:8d:4d:ec:d0:4b:d1:be:23:c0:f4:c5:39:ec:
                    01:c1:7c:2b:5a:21:43:b9:67:bb:74:70:7a:d5:b0:
                    54:a0:80:33:9c:ef:56:30:cc:b0:48:59:79:22:4d:
                    3a:a9:a2:be:21:a7:46:9a:5c:5e:17:85:89:8f:b0:
                    85:f3
                Exponent: 65537 (0x10001)
        X509v3 extensions:
            X509v3 Key Usage: critical
                Certificate Sign, CRL Sign
            X509v3 Basic Constraints: critical
                CA:TRUE, pathlen:0
            X509v3 Subject Key Identifier: 
                17:52:F9:4E:10:EA:E8:B3:99:E5:F2:00:EB:B9:CF:1A:8C:70:E2:EA
            X509v3 Authority Key Identifier: 
                keyid:7E:8B:5E:8B:20:9A:BC:0E:B7:5E:D4:32:F2:81:34:27:09:0C:55:91

    Signature Algorithm: sha1WithRSAEncryption
         a2:07:4f:2a:62:08:e0:04:34:8d:d2:a7:13:b8:a1:25:ab:90:
         58:ae:5a:c6:ba:fb:c2:10:04:01:52:ba:f7:39:66:aa:ab:47:
         39:5a:a7:36:93:5b:a5:17:15:6c:e6:4a:e5:be:1b:0b:4b:4c:
         cc:b7:28:31:fe:57:1a:9e:48:c0:90:c5:be:de:13:0c:90:19:
         8a:a5:84:de:4e:ad:ec:f1:3a:b6:a6:77:12:21:85:dd:6b:d6:
         12:63:9b:1a:3a:f3:77:4f:bf:67:7e:5d:4c:ad:63:03:52:4c:
         70:cd:b2:0c:84:85:f5:99:8e:2c:4a:28:fa:be:6c:da:b1:04:
         97:bb:c6:7c:72:1b:52:bd:3d:ae:e7:da:a4:be:35:f7:d4:d0:
         ed:c5:03:e8:25:47:d9:aa:b4:0f:47:b2:1f:7d:10:ec:91:a5:
         aa:83:be:21:1d:03:21:e9:91:20:c1:6e:1d:d7:c7:d6:ac:d6:
         31:98:de:be:f3:da:10:82:63:d2:08:96:99:51:31:42:84:3f:
         05:68:3c:e0:c3:aa:2d:9c:a9:0d:fd:76:b8:b3:08:e5:21:81:
         1d:3e:76:1c:5e:f5:cd:fc:90:24:2f:de:fb:a1:72:df:2b:48:
         cb:b5:51:2e:f0:23:10:1e:7a:bc:10:73:03:a4:c5:5d:18:d4:
         b7:6b:b4:66
-----BEGIN CERTIFICATE-----
MIIDzzCCAregAwIBAgIBAzANBgkqhkiG9w0BAQUFADB0MRMwEQYKCZImiZPyLGQB
GRYDb3JnMRYwFAYKCZImiZPyLGQBGRYGc2ltcGxlMRMwEQYDVQQKDApTaW1wbGUg
SW5jMRcwFQYDVQQLDA5TaW1wbGUgUm9vdCBDQTEXMBUGA1UEAwwOU2ltcGxlIFJv
b3QgQ0EwHhcNMTgxMjA5MDcxMjI5WhcNMjgxMjA4MDcxMjI5WjB6MRMwEQYKCZIm
iZPyLGQBGRYDb3JnMRYwFAYKCZImiZPyLGQBGRYGc2ltcGxlMRMwEQYDVQQKDApT
aW1wbGUgSW5jMRowGAYDVQQLDBFTaW1wbGUgU2lnbmluZyBDQTEaMBgGA1UEAwwR
U2ltcGxlIFNpZ25pbmcgQ0EwggEiMA0GCSqGSIb3DQEBAQUAA4IBDwAwggEKAoIB
AQCfsktioyL7BoFTnMdIQRfRvhYnpFjM/ErF+eWQUDKdauLi+ypruAV5lue/8K61
HcVGTnXNeOQQttBIAZQ8GSAdDaxI/wf/Pp90Fc9Dkyp3Da3+S48w6+gLoARHWQn4
o68yaHq2Mzg9vuMvkfVcfWGrMnTzGJ4Geb9q6k0Zs/W9u3zVh63PxeVdsj8BY7kz
a00kOkK4E/x74vdHyHsucnw2ZIW4lQLT89X51yY0vhxZx4JeH6sh4kjdBbzmwQWG
mXJvaa3RjU3s0EvRviPA9MU57AHBfCtaIUO5Z7t0cHrVsFSggDOc71YwzLBIWXki
TTqpor4hp0aaXF4XhYmPsIXzAgMBAAGjZjBkMA4GA1UdDwEB/wQEAwIBBjASBgNV
HRMBAf8ECDAGAQH/AgEAMB0GA1UdDgQWBBQXUvlOEOros5nl8gDruc8ajHDi6jAf
BgNVHSMEGDAWgBR+i16LIJq8Drde1DLygTQnCQxVkTANBgkqhkiG9w0BAQUFAAOC
AQEAogdPKmII4AQ0jdKnE7ihJauQWK5axrr7whAEAVK69zlmqqtHOVqnNpNbpRcV
bOZK5b4bC0tMzLcoMf5XGp5IwJDFvt4TDJAZiqWE3k6t7PE6tqZ3EiGF3WvWEmOb
Gjrzd0+/Z35dTK1jA1JMcM2yDISF9ZmOLEoo+r5s2rEEl7vGfHIbUr09rufapL41
99TQ7cUD6CVH2aq0D0eyH30Q7JGlqoO+IR0DIemRIMFuHdfH1qzWMZjevvPaEIJj
0giWmVExQoQ/BWg84MOqLZypDf12uLMI5SGBHT52HF71zfyQJC/e+6Fy3ytIy7VR
LvAjEB56vBBzA6TFXRjUt2u0Zg==
-----END CERTIFICATE-----
Certificate:
    Data:
        Version: 3 (0x2)
        Serial Number: 1 (0x1)
    Signature Algorithm: sha1WithRSAEncryption
        Issuer: DC=org, DC=simple, O=Simple Inc, OU=Simple Root CA, CN=Simple Root CA
        Validity
            Not Before: Dec  9 07:05:28 2018 GMT
            Not After : Dec  8 07:05:28 2028 GMT
        Subject: DC=org, DC=simple, O=Simple Inc, OU=Simple Root CA, CN=Simple Root CA
        Subject Public Key Info:
            Public Key Algorithm: rsaEncryption
                Public-Key: (2048 bit)
                Modulus:
                    00:ba:c4:56:eb:46:48:7c:33:45:87:ba:05:e7:29:
                    5d:fa:ed:f3:38:e5:e5:fc:99:cb:cd:fa:b6:3b:c1:
                    76:46:fa:0a:e5:e8:75:b6:57:a9:79:40:ba:83:51:
                    88:dc:f7:d3:45:4b:64:2d:4d:db:57:d7:1b:a9:81:
                    88:2c:45:04:b0:42:36:ed:d3:7a:34:d8:a1:27:a1:
                    53:8d:03:ae:3d:45:01:62:46:ff:7f:c3:a7:b6:15:
                    c8:51:d4:29:68:92:74:e5:7d:83:cb:0e:75:66:43:
                    cc:70:99:b1:60:5a:3b:0a:33:6b:e8:e3:61:80:57:
                    ca:5c:14:2b:21:3e:df:9c:80:62:93:30:51:bd:bf:
                    27:e9:4b:22:6f:a1:24:62:6a:00:c9:81:55:d4:10:
                    a8:fe:a7:78:36:05:01:f2:09:22:be:27:37:98:0c:
                    cd:a2:35:1e:e9:3e:6f:55:a1:a2:3b:76:82:3f:ea:
                    b5:26:1b:95:f6:4f:45:50:c8:30:0d:e2:97:e4:0c:
                    4b:a7:c8:28:6c:3f:c6:73:d6:3e:24:bc:5f:c2:0b:
                    0b:ee:87:84:0c:a7:6f:ae:ae:95:c9:9f:de:6d:ef:
                    23:a6:07:3f:be:c3:9d:ef:1e:01:6f:ae:1c:bd:49:
                    40:b5:55:23:0f:9d:04:58:44:93:8f:37:12:e9:4e:
                    83:7d
                Exponent: 65537 (0x10001)
        X509v3 extensions:
            X509v3 Key Usage: critical
                Certificate Sign, CRL Sign
            X509v3 Basic Constraints: critical
                CA:TRUE
            X509v3 Subject Key Identifier: 
                7E:8B:5E:8B:20:9A:BC:0E:B7:5E:D4:32:F2:81:34:27:09:0C:55:91
            X509v3 Authority Key Identifier: 
                keyid:7E:8B:5E:8B:20:9A:BC:0E:B7:5E:D4:32:F2:81:34:27:09:0C:55:91

    Signature Algorithm: sha1WithRSAEncryption
         8e:1c:38:06:a5:47:2e:84:83:72:d2:99:fc:96:2d:fc:b9:58:
         be:e0:35:9f:5c:6e:55:b0:7c:f3:e8:27:aa:10:ba:36:5d:b3:
         a5:d0:63:94:8d:8a:fc:38:83:30:77:f4:a3:79:c2:5c:ed:76:
         2f:a8:ef:fe:73:72:07:c7:01:26:32:f1:fe:01:bd:85:af:38:
         41:d6:3e:f1:da:50:2a:9a:09:ec:ed:c9:67:4d:4b:2f:8c:18:
         3a:bb:46:d7:e7:e2:f6:b3:52:2e:f9:51:29:b8:cc:a8:74:7e:
         90:84:33:33:0b:4c:36:6f:66:1e:ac:a3:30:75:6d:81:aa:31:
         40:8c:fe:63:47:62:29:87:5c:0b:66:5c:53:b6:4d:18:c8:3c:
         00:1c:2d:fb:fb:fa:0d:bd:81:72:2d:8b:fb:c0:35:cc:0b:9e:
         6d:94:66:9a:74:00:cd:83:ef:b8:a6:47:67:d4:c8:63:41:4b:
         b5:d4:48:2b:93:34:21:e0:15:61:b7:a5:a4:85:2a:5f:91:14:
         e1:05:fb:de:8f:4d:66:55:e6:dd:7c:55:b2:f8:61:93:62:56:
         cd:19:80:da:1e:e3:6e:6e:5e:cf:4b:09:95:72:9a:35:a9:f6:
         ab:2d:dd:71:a8:07:5a:fe:20:49:f3:ad:ae:bd:8f:70:cb:73:
         b6:e6:0c:e5
-----BEGIN CERTIFICATE-----
MIIDxjCCAq6gAwIBAgIBATANBgkqhkiG9w0BAQUFADB0MRMwEQYKCZImiZPyLGQB
GRYDb3JnMRYwFAYKCZImiZPyLGQBGRYGc2ltcGxlMRMwEQYDVQQKDApTaW1wbGUg
SW5jMRcwFQYDVQQLDA5TaW1wbGUgUm9vdCBDQTEXMBUGA1UEAwwOU2ltcGxlIFJv
b3QgQ0EwHhcNMTgxMjA5MDcwNTI4WhcNMjgxMjA4MDcwNTI4WjB0MRMwEQYKCZIm
iZPyLGQBGRYDb3JnMRYwFAYKCZImiZPyLGQBGRYGc2ltcGxlMRMwEQYDVQQKDApT
aW1wbGUgSW5jMRcwFQYDVQQLDA5TaW1wbGUgUm9vdCBDQTEXMBUGA1UEAwwOU2lt
cGxlIFJvb3QgQ0EwggEiMA0GCSqGSIb3DQEBAQUAA4IBDwAwggEKAoIBAQC6xFbr
Rkh8M0WHugXnKV367fM45eX8mcvN+rY7wXZG+grl6HW2V6l5QLqDUYjc99NFS2Qt
TdtX1xupgYgsRQSwQjbt03o02KEnoVONA649RQFiRv9/w6e2FchR1CloknTlfYPL
DnVmQ8xwmbFgWjsKM2vo42GAV8pcFCshPt+cgGKTMFG9vyfpSyJvoSRiagDJgVXU
EKj+p3g2BQHyCSK+JzeYDM2iNR7pPm9VoaI7doI/6rUmG5X2T0VQyDAN4pfkDEun
yChsP8Zz1j4kvF/CCwvuh4QMp2+urpXJn95t7yOmBz++w53vHgFvrhy9SUC1VSMP
nQRYRJOPNxLpToN9AgMBAAGjYzBhMA4GA1UdDwEB/wQEAwIBBjAPBgNVHRMBAf8E
BTADAQH/MB0GA1UdDgQWBBR+i16LIJq8Drde1DLygTQnCQxVkTAfBgNVHSMEGDAW
gBR+i16LIJq8Drde1DLygTQnCQxVkTANBgkqhkiG9w0BAQUFAAOCAQEAjhw4BqVH
LoSDctKZ/JYt/LlYvuA1n1xuVbB88+gnqhC6Nl2zpdBjlI2K/DiDMHf0o3nCXO12
L6jv/nNyB8cBJjLx/gG9ha84QdY+8dpQKpoJ7O3JZ01LL4wYOrtG1+fi9rNSLvlR
KbjMqHR+kIQzMwtMNm9mHqyjMHVtgaoxQIz+Y0diKYdcC2ZcU7ZNGMg8ABwt+/v6
Db2Bci2L+8A1zAuebZRmmnQAzYPvuKZHZ9TIY0FLtdRIK5M0IeAVYbelpIUqX5EU
4QX73o9NZlXm3XxVsvhhk2JWzRmA2h7jbm5ez0sJlXKaNan2qy3dcagHWv4gSfOt
rr2PcMtztuYM5Q==
-----END CERTIFICATE-----
